target datalayout = "e-m:e-p270:32:32-p271:32:32-p272:64:64-i64:64-i128:128-f80:128-n8:16:32:64-S128"
target triple = "x86_64-pc-linux-gnu"

%"class.std::__cxx11::basic_string" = type { %"struct.std::__cxx11::basic_string<char>::_Alloc_hider", i64, %union.anon }
%"struct.std::__cxx11::basic_string<char>::_Alloc_hider" = type { ptr }
%union.anon = type { i64, [8 x i8] }
%"class.open_spiel::bridge_uncontested_bidding::Deal" = type { %"struct.std::array" }
%"struct.std::array" = type { [52 x i32] }

@_ZN10open_spiel26bridge_uncontested_bidding9kRankCharE = linkonce_odr constant [14 x i8] c"23456789TJQKA\00", comdat, align 1

; Function Attrs: mustprogress nounwind uwtable
define linkonce_odr noundef nonnull align 4 dereferenceable(4) ptr @_ZNSt14__array_traitsIiLm52EE6_S_refERA52_Kim(ptr noundef nonnull align 4 dereferenceable(208) %0, i64 noundef %1) #5 comdat align 2 {
  %3 = alloca ptr, align 8
  %4 = alloca i64, align 8
  store ptr %0, ptr %3, align 8
  store i64 %1, ptr %4, align 8
  %5 = load ptr, ptr %3, align 8
  %6 = load i64, ptr %4, align 8
  %7 = getelementptr inbounds [52 x i32], ptr %5, i64 0, i64 %6
  ret ptr %7
}

; Function Attrs: mustprogress nounwind uwtable
define linkonce_odr noundef nonnull align 4 dereferenceable(4) ptr @_ZNKSt5arrayIiLm52EEixEm(ptr noundef nonnull align 4 dereferenceable(208) %0, i64 noundef %1) #5 comdat align 2 {
  %3 = alloca ptr, align 8
  %4 = alloca i64, align 8
  store ptr %0, ptr %3, align 8
  store i64 %1, ptr %4, align 8
  %5 = load ptr, ptr %3, align 8
  %6 = getelementptr inbounds nuw %"struct.std::array", ptr %5, i32 0, i32 0
  %7 = load i64, ptr %4, align 8
  %8 = call noundef nonnull align 4 dereferenceable(4) ptr @_ZNSt14__array_traitsIiLm52EE6_S_refERA52_Kim(ptr noundef nonnull align 4 dereferenceable(208) %6, i64 noundef %7) #3
  ret ptr %8
}

; Function Attrs: mustprogress nounwind uwtable
define linkonce_odr noundef i32 @_ZNK10open_spiel26bridge_uncontested_bidding4Deal4RankEi(ptr noundef nonnull align 4 dereferenceable(208) %0, i32 noundef %1) #5 comdat align 2 {
  %3 = alloca ptr, align 8
  %4 = alloca i32, align 4
  store ptr %0, ptr %3, align 8
  store i32 %1, ptr %4, align 4
  %5 = load ptr, ptr %3, align 8
  %6 = getelementptr inbounds nuw %"class.open_spiel::bridge_uncontested_bidding::Deal", ptr %5, i32 0, i32 0
  %7 = load i32, ptr %4, align 4
  %8 = sext i32 %7 to i64
  %9 = call noundef nonnull align 4 dereferenceable(4) ptr @_ZNKSt5arrayIiLm52EEixEm(ptr noundef nonnull align 4 dereferenceable(208) %6, i64 noundef %8) #3
  %10 = load i32, ptr %9, align 4
  %11 = sdiv i32 %10, 4
  ret i32 %11
}

; Function Attrs: mustprogress nounwind uwtable
define linkonce_odr noundef i32 @_ZNK10open_spiel26bridge_uncontested_bidding4Deal4SuitEi(ptr noundef nonnull align 4 dereferenceable(208) %0, i32 noundef %1) #5 comdat align 2 {
  %3 = alloca ptr, align 8
  %4 = alloca i32, align 4
  store ptr %0, ptr %3, align 8
  store i32 %1, ptr %4, align 4
  %5 = load ptr, ptr %3, align 8
  %6 = getelementptr inbounds nuw %"class.open_spiel::bridge_uncontested_bidding::Deal", ptr %5, i32 0, i32 0
  %7 = load i32, ptr %4, align 4
  %8 = sext i32 %7 to i64
  %9 = call noundef nonnull align 4 dereferenceable(4) ptr @_ZNKSt5arrayIiLm52EEixEm(ptr noundef nonnull align 4 dereferenceable(208) %6, i64 noundef %8) #3
  %10 = load i32, ptr %9, align 4
  %11 = srem i32 %10, 4
  ret i32 %11
}

; Function Attrs: mustprogress uwtable
define void @_ZNK10open_spiel26bridge_uncontested_bidding4Deal10HandStringB5cxx11Eii(ptr dead_on_unwind noalias writable sret(%"class.std::__cxx11::basic_string") align 8 %0, ptr noundef nonnull align 4 dereferenceable(208) %1, i32 noundef %2, i32 noundef %3) #4 align 2 personality ptr @__gxx_personality_v0 {
  %5 = alloca ptr, align 8
  %6 = alloca ptr, align 8
  %7 = alloca i32, align 4
  %8 = alloca i32, align 4
  %9 = alloca [4 x [13 x i8]], align 16
  %10 = alloca i32, align 4
  %11 = alloca i1, align 1
  %12 = alloca i32, align 4
  %13 = alloca i32, align 4
  %14 = alloca ptr, align 8
  %15 = alloca i32, align 4
  store ptr %0, ptr %5, align 8
  store ptr %1, ptr %6, align 8
  store i32 %2, ptr %7, align 4
  store i32 %3, ptr %8, align 4
  %16 = load ptr, ptr %6, align 8
  call void @llvm.memset.p0.i64(ptr align 16 %9, i8 0, i64 52, i1 false)
  %17 = load i32, ptr %7, align 4
  store i32 %17, ptr %10, align 4
  br label %18

18:                                               ; preds = %31, %4
  %19 = load i32, ptr %10, align 4
  %20 = load i32, ptr %8, align 4
  %21 = icmp slt i32 %19, %20
  br i1 %21, label %22, label %34

22:                                               ; preds = %18
  %23 = load i32, ptr %10, align 4
  %24 = call noundef i32 @_ZNK10open_spiel26bridge_uncontested_bidding4Deal4SuitEi(ptr noundef nonnull align 4 dereferenceable(208) %16, i32 noundef %23)
  %25 = sext i32 %24 to i64
  %26 = getelementptr inbounds [4 x [13 x i8]], ptr %9, i64 0, i64 %25
  %27 = load i32, ptr %10, align 4
  %28 = call noundef i32 @_ZNK10open_spiel26bridge_uncontested_bidding4Deal4RankEi(ptr noundef nonnull align 4 dereferenceable(208) %16, i32 noundef %27)
  %29 = sext i32 %28 to i64
  %30 = getelementptr inbounds [13 x i8], ptr %26, i64 0, i64 %29
  store i8 1, ptr %30, align 1
  br label %31

31:                                               ; preds = %22
  %32 = load i32, ptr %10, align 4
  %33 = add nsw i32 %32, 1
  store i32 %33, ptr %10, align 4
  br label %18, !llvm.loop !4

34:                                               ; preds = %18
  store i1 false, ptr %11, align 1
  call void @_ZNSt7__cxx1112basic_stringIcSt11char_traitsIcESaIcEEC1Ev(ptr noundef nonnull align 8 dereferenceable(32) %0) #3
  store i32 3, ptr %12, align 4
  br label %35

35:                                               ; preds = %71, %34
  %36 = load i32, ptr %12, align 4
  %37 = icmp sge i32 %36, 0
  br i1 %37, label %38, label %74

38:                                               ; preds = %35
  store i32 12, ptr %13, align 4
  br label %39

39:                                               ; preds = %62, %38
  %40 = load i32, ptr %13, align 4
  %41 = icmp sge i32 %40, 0
  br i1 %41, label %42, label %65

42:                                               ; preds = %39
  %43 = load i32, ptr %12, align 4
  %44 = sext i32 %43 to i64
  %45 = getelementptr inbounds [4 x [13 x i8]], ptr %9, i64 0, i64 %44
  %46 = load i32, ptr %13, align 4
  %47 = sext i32 %46 to i64
  %48 = getelementptr inbounds [13 x i8], ptr %45, i64 0, i64 %47
  %49 = load i8, ptr %48, align 1
  %50 = trunc i8 %49 to i1
  br i1 %50, label %51, label %61

51:                                               ; preds = %42
  %52 = load i32, ptr %13, align 4
  %53 = sext i32 %52 to i64
  %54 = getelementptr inbounds [14 x i8], ptr @_ZN10open_spiel26bridge_uncontested_bidding9kRankCharE, i64 0, i64 %53
  %55 = load i8, ptr %54, align 1
  invoke void @_ZNSt7__cxx1112basic_stringIcSt11char_traitsIcESaIcEE9push_backEc(ptr noundef nonnull align 8 dereferenceable(32) %0, i8 noundef signext %55)
          to label %56 unwind label %57

56:                                               ; preds = %51
  br label %61

57:                                               ; preds = %68, %51
  %58 = landingpad { ptr, i32 }
          cleanup
  %59 = extractvalue { ptr, i32 } %58, 0
  store ptr %59, ptr %14, align 8
  %60 = extractvalue { ptr, i32 } %58, 1
  store i32 %60, ptr %15, align 4
  call void @_ZNSt7__cxx1112basic_stringIcSt11char_traitsIcESaIcEED1Ev(ptr noundef nonnull align 8 dereferenceable(32) %0) #3
  br label %78

61:                                               ; preds = %56, %42
  br label %62

62:                                               ; preds = %61
  %63 = load i32, ptr %13, align 4
  %64 = add nsw i32 %63, -1
  store i32 %64, ptr %13, align 4
  br label %39, !llvm.loop !6

65:                                               ; preds = %39
  %66 = load i32, ptr %12, align 4
  %67 = icmp ne i32 %66, 0
  br i1 %67, label %68, label %70

68:                                               ; preds = %65
  invoke void @_ZNSt7__cxx1112basic_stringIcSt11char_traitsIcESaIcEE9push_backEc(ptr noundef nonnull align 8 dereferenceable(32) %0, i8 noundef signext 46)
          to label %69 unwind label %57

69:                                               ; preds = %68
  br label %70

70:                                               ; preds = %69, %65
  br label %71

71:                                               ; preds = %70
  %72 = load i32, ptr %12, align 4
  %73 = add nsw i32 %72, -1
  store i32 %73, ptr %12, align 4
  br label %35, !llvm.loop !7

74:                                               ; preds = %35
  store i1 true, ptr %11, align 1
  %75 = load i1, ptr %11, align 1
  br i1 %75, label %77, label %76

76:                                               ; preds = %74
  call void @_ZNSt7__cxx1112basic_stringIcSt11char_traitsIcESaIcEED1Ev(ptr noundef nonnull align 8 dereferenceable(32) %0) #3
  br label %77

77:                                               ; preds = %76, %74
  ret void

78:                                               ; preds = %57
  %79 = load ptr, ptr %14, align 8
  %80 = load i32, ptr %15, align 4
  %81 = insertvalue { ptr, i32 } poison, ptr %79, 0
  %82 = insertvalue { ptr, i32 } %81, i32 %80, 1
  resume { ptr, i32 } %82
}