; Function Attrs: mustprogress uwtable
define void @_ZNK10open_spiel26bridge_uncontested_bidding4Deal10HandStringB5cxx11Eii(ptr dead_on_unwind noalias writable sret(%"class.std::__cxx11::basic_string") align 8 %0, ptr noundef nonnull readonly align 4 captures(none) dereferenceable(208) %1, i32 noundef %2, i32 noundef %3) local_unnamed_addr #3 align 2 personality ptr @__gxx_personality_v0 {
  %5 = alloca [4 x [13 x i8]], align 16
  call void @llvm.memset.p0.i64(ptr noundef nonnull align 16 dereferenceable(52) %5, i8 0, i64 52, i1 false)
  %6 = icmp slt i32 %2, %3
  br i1 %6, label %.lr.ph.preheader, label %._crit_edge

.lr.ph.preheader:                                 ; preds = %4
  %7 = sext i32 %2 to i64
  %wide.trip.count = sext i32 %3 to i64
  br label %.lr.ph

.lr.ph:                                           ; preds = %.lr.ph.preheader, %.lr.ph
  %indvars.iv = phi i64 [ %7, %.lr.ph.preheader ], [ %indvars.iv.next, %.lr.ph ]
  %8 = getelementptr inbounds [52 x i32], ptr %1, i64 0, i64 %indvars.iv
  %9 = load i32, ptr %8, align 4
  %10 = srem i32 %9, 4
  %11 = sext i32 %10 to i64
  %12 = sdiv i32 %9, 4
  %13 = sext i32 %12 to i64
  %14 = getelementptr inbounds [4 x [13 x i8]], ptr %5, i64 0, i64 %11, i64 %13
  store i8 1, ptr %14, align 1
  %indvars.iv.next = add nsw i64 %indvars.iv, 1
  %exitcond.not = icmp eq i64 %indvars.iv.next, %wide.trip.count
  br i1 %exitcond.not, label %._crit_edge, label %.lr.ph, !llvm.loop !4

._crit_edge:                                      ; preds = %.lr.ph, %4
  tail call void @_ZNSt7__cxx1112basic_stringIcSt11char_traitsIcESaIcEEC1Ev(ptr noundef nonnull align 8 dereferenceable(32) %0) #26
  br label %.preheader

.preheader:                                       ; preds = %26, %._crit_edge
  %indvars.iv26 = phi i64 [ 3, %._crit_edge ], [ %indvars.iv.next27, %26 ]
  br label %15

15:                                               ; preds = %.preheader, %23
  %indvars.iv23 = phi i64 [ 12, %.preheader ], [ %indvars.iv.next24, %23 ]
  %16 = getelementptr inbounds nuw [4 x [13 x i8]], ptr %5, i64 0, i64 %indvars.iv26, i64 %indvars.iv23
  %17 = load i8, ptr %16, align 1
  %18 = trunc i8 %17 to i1
  br i1 %18, label %19, label %23

19:                                               ; preds = %15
  %20 = getelementptr inbounds nuw [14 x i8], ptr @_ZN10open_spiel26bridge_uncontested_bidding9kRankCharE, i64 0, i64 %indvars.iv23
  %21 = load i8, ptr %20, align 1
  invoke void @_ZNSt7__cxx1112basic_stringIcSt11char_traitsIcESaIcEE9push_backEc(ptr noundef nonnull align 8 dereferenceable(32) %0, i8 noundef signext %21)
          to label %23 unwind label %.loopexit

.loopexit:                                        ; preds = %19
  %lpad.loopexit = landingpad { ptr, i32 }
          cleanup
  br label %22

.loopexit.split-lp:                               ; preds = %25
  %lpad.loopexit.split-lp = landingpad { ptr, i32 }
          cleanup
  br label %22

22:                                               ; preds = %.loopexit.split-lp, %.loopexit
  %lpad.phi = phi { ptr, i32 } [ %lpad.loopexit, %.loopexit ], [ %lpad.loopexit.split-lp, %.loopexit.split-lp ]
  tail call void @_ZNSt7__cxx1112basic_stringIcSt11char_traitsIcESaIcEED1Ev(ptr noundef nonnull align 8 dereferenceable(32) %0) #26
  resume { ptr, i32 } %lpad.phi

23:                                               ; preds = %15, %19
  %indvars.iv.next24 = add nsw i64 %indvars.iv23, -1
  %.not29 = icmp eq i64 %indvars.iv23, 0
  br i1 %.not29, label %24, label %15, !llvm.loop !6

24:                                               ; preds = %23
  %.not = icmp eq i64 %indvars.iv26, 0
  br i1 %.not, label %27, label %25

25:                                               ; preds = %24
  invoke void @_ZNSt7__cxx1112basic_stringIcSt11char_traitsIcESaIcEE9push_backEc(ptr noundef nonnull align 8 dereferenceable(32) %0, i8 noundef signext 46)
          to label %26 unwind label %.loopexit.split-lp

26:                                               ; preds = %25
  %indvars.iv.next27 = add nsw i64 %indvars.iv26, -1
  br label %.preheader, !llvm.loop !7

27:                                               ; preds = %24
  ret void
}